; Function Attrs: null_pointer_is_valid sspstrong uwtable
define internal i32 @dissect_ICBAAccoCallback_Gnip_resp(ptr noundef %0, i32 noundef %1, ptr noundef %2, ptr noundef %3, ptr noundef %4, ptr noundef %5) #0 {
  %7 = alloca i32, align 4
  call void @llvm.lifetime.start.p0(i64 4, ptr nonnull %7) #12
  %8 = tail call i32 @dissect_dcom_that(ptr noundef %0, i32 noundef %1, ptr noundef %2, ptr noundef %3, ptr noundef %4, ptr noundef %5)
  %9 = load i32, ptr @hf_cba_acco_srt_call, align 4
  %10 = tail call ptr @proto_tree_add_boolean(ptr noundef %3, i32 noundef %9, ptr noundef %0, i32 noundef %8, i32 noundef 0, i64 noundef 1)
  %.not.i = icmp eq ptr %10, null
  br i1 %.not.i, label %proto_item_set_generated.exit, label %11

11:                                               ; preds = %6
  %12 = getelementptr inbounds nuw i8, ptr %10, i64 40
  %13 = load ptr, ptr %12, align 8
  %.not5.i = icmp eq ptr %13, null
  br i1 %.not5.i, label %proto_item_set_generated.exit, label %14

14:                                               ; preds = %11
  %15 = getelementptr inbounds nuw i8, ptr %13, i64 28
  %16 = load i32, ptr %15, align 4
  %17 = or i32 %16, 2
  store i32 %17, ptr %15, align 4
  br label %proto_item_set_generated.exit

proto_item_set_generated.exit:                    ; preds = %6, %11, %14
  %18 = getelementptr inbounds nuw i8, ptr %2, i64 408
  %19 = load ptr, ptr %18, align 8
  %20 = load i32, ptr @proto_ICBAAccoMgt, align 4
  tail call void @p_add_proto_data(ptr noundef %19, ptr noundef %2, i32 noundef %20, i32 noundef 0, ptr noundef nonnull inttoptr (i64 4 to ptr))
  %21 = call i32 @dissect_dcom_HRESULT(ptr noundef %0, i32 noundef %8, ptr noundef %2, ptr noundef %3, ptr noundef %4, ptr noundef %5, ptr noundef nonnull %7)
  %22 = getelementptr inbounds nuw i8, ptr %2, i64 8
  %23 = load ptr, ptr %22, align 8
  %24 = load i32, ptr %7, align 4
  %25 = call ptr @val_to_str(i32 noundef %24, ptr noundef nonnull @dcom_hresult_vals, ptr noundef nonnull @.str.259)
  call void (ptr, i32, ptr, ...) @col_append_fstr(ptr noundef %23, i32 noundef 25, ptr noundef nonnull @.str.261, ptr noundef %25)
  call void @llvm.lifetime.end.p0(i64 4, ptr nonnull %7) #12
  ret i32 %21
}